; Function Attrs: nounwind uwtable
define internal fastcc void @reuse_conn(ptr noundef %0, ptr noundef nonnull %1, ptr noundef %2) unnamed_addr #0 {
  %4 = getelementptr inbounds nuw i8, ptr %1, i64 480
  %5 = load ptr, ptr %4, align 8, !tbaa !181
  %.not = icmp eq ptr %5, null
  br i1 %.not, label %16, label %6

6:                                                ; preds = %3
  %7 = load ptr, ptr @Curl_cfree, align 8, !tbaa !3
  %8 = getelementptr inbounds nuw i8, ptr %2, i64 480
  %9 = load ptr, ptr %8, align 8, !tbaa !181
  tail call void %7(ptr noundef %9) #11
  store ptr null, ptr %8, align 8, !tbaa !181
  %10 = load ptr, ptr @Curl_cfree, align 8, !tbaa !3
  %11 = getelementptr inbounds nuw i8, ptr %2, i64 488
  %12 = load ptr, ptr %11, align 8, !tbaa !182
  tail call void %10(ptr noundef %12) #11
  store ptr null, ptr %11, align 8, !tbaa !182
  %13 = load ptr, ptr %4, align 8, !tbaa !181
  store ptr %13, ptr %8, align 8, !tbaa !181
  %14 = getelementptr inbounds nuw i8, ptr %1, i64 488
  %15 = load ptr, ptr %14, align 8, !tbaa !182
  store ptr %15, ptr %11, align 8, !tbaa !182
  tail call void @llvm.memset.p0.i64(ptr noundef nonnull align 8 dereferenceable(16) %4, i8 0, i64 16, i1 false)
  br label %16

16:                                               ; preds = %6, %3
  %17 = getelementptr inbounds nuw i8, ptr %1, i64 952
  %18 = load i64, ptr %17, align 8
  %19 = and i64 %18, 4
  %20 = getelementptr inbounds nuw i8, ptr %2, i64 952
  %21 = load i64, ptr %20, align 8
  %22 = and i64 %21, -5
  %23 = or disjoint i64 %22, %19
  store i64 %23, ptr %20, align 8
  %.not59 = icmp eq i64 %19, 0
  br i1 %.not59, label %45, label %24

24:                                               ; preds = %16
  %25 = load ptr, ptr @Curl_cfree, align 8, !tbaa !3
  %26 = getelementptr inbounds nuw i8, ptr %2, i64 264
  %27 = load ptr, ptr %26, align 8, !tbaa !167
  tail call void %25(ptr noundef %27) #11
  store ptr null, ptr %26, align 8, !tbaa !167
  %28 = load ptr, ptr @Curl_cfree, align 8, !tbaa !3
  %29 = getelementptr inbounds nuw i8, ptr %2, i64 208
  %30 = load ptr, ptr %29, align 8, !tbaa !176
  tail call void %28(ptr noundef %30) #11
  store ptr null, ptr %29, align 8, !tbaa !176
  %31 = load ptr, ptr @Curl_cfree, align 8, !tbaa !3
  %32 = getelementptr inbounds nuw i8, ptr %2, i64 272
  %33 = load ptr, ptr %32, align 8, !tbaa !177
  tail call void %31(ptr noundef %33) #11
  store ptr null, ptr %32, align 8, !tbaa !177
  %34 = load ptr, ptr @Curl_cfree, align 8, !tbaa !3
  %35 = getelementptr inbounds nuw i8, ptr %2, i64 216
  %36 = load ptr, ptr %35, align 8, !tbaa !178
  tail call void %34(ptr noundef %36) #11
  store ptr null, ptr %35, align 8, !tbaa !178
  %37 = getelementptr inbounds nuw i8, ptr %1, i64 264
  %38 = load ptr, ptr %37, align 8, !tbaa !167
  store ptr %38, ptr %26, align 8, !tbaa !167
  %39 = getelementptr inbounds nuw i8, ptr %1, i64 208
  %40 = load ptr, ptr %39, align 8, !tbaa !176
  store ptr %40, ptr %29, align 8, !tbaa !176
  %41 = getelementptr inbounds nuw i8, ptr %1, i64 272
  %42 = load ptr, ptr %41, align 8, !tbaa !177
  store ptr %42, ptr %32, align 8, !tbaa !177
  %43 = getelementptr inbounds nuw i8, ptr %1, i64 216
  %44 = load ptr, ptr %43, align 8, !tbaa !178
  store ptr %44, ptr %35, align 8, !tbaa !178
  tail call void @llvm.memset.p0.i64(ptr noundef nonnull align 8 dereferenceable(16) %39, i8 0, i64 16, i1 false)
  tail call void @llvm.memset.p0.i64(ptr noundef nonnull align 8 dereferenceable(16) %37, i8 0, i64 16, i1 false)
  br label %45

45:                                               ; preds = %24, %16
  %46 = getelementptr inbounds nuw i8, ptr %2, i64 88
  tail call void @Curl_free_idnconverted_hostname(ptr noundef nonnull %46) #11
  %47 = getelementptr inbounds nuw i8, ptr %2, i64 136
  tail call void @Curl_free_idnconverted_hostname(ptr noundef nonnull %47) #11
  %48 = load ptr, ptr @Curl_cfree, align 8, !tbaa !3
  %49 = load ptr, ptr %46, align 8, !tbaa !186
  tail call void %48(ptr noundef %49) #11
  store ptr null, ptr %46, align 8, !tbaa !186
  %50 = load ptr, ptr @Curl_cfree, align 8, !tbaa !3
  %51 = load ptr, ptr %47, align 8, !tbaa !187
  tail call void %50(ptr noundef %51) #11
  store ptr null, ptr %47, align 8, !tbaa !187
  %52 = getelementptr inbounds nuw i8, ptr %1, i64 88
  tail call void @llvm.memcpy.p0.p0.i64(ptr noundef nonnull align 8 dereferenceable(32) %46, ptr noundef nonnull align 8 dereferenceable(32) %52, i64 32, i1 false), !tbaa.struct !294
  %53 = getelementptr inbounds nuw i8, ptr %1, i64 136
  tail call void @llvm.memset.p0.i64(ptr noundef nonnull align 8 dereferenceable(16) %52, i8 0, i64 16, i1 false)
  tail call void @llvm.memcpy.p0.p0.i64(ptr noundef nonnull align 8 dereferenceable(32) %47, ptr noundef nonnull align 8 dereferenceable(32) %53, i64 32, i1 false), !tbaa.struct !294
  store ptr null, ptr %53, align 8, !tbaa !187
  %54 = getelementptr inbounds nuw i8, ptr %1, i64 1396
  %55 = load i32, ptr %54, align 4, !tbaa !253
  %56 = getelementptr inbounds nuw i8, ptr %2, i64 1396
  store i32 %55, ptr %56, align 4, !tbaa !253
  %57 = getelementptr inbounds nuw i8, ptr %1, i64 1392
  %58 = load i32, ptr %57, align 8, !tbaa !224
  %59 = getelementptr inbounds nuw i8, ptr %2, i64 1392
  store i32 %58, ptr %59, align 8, !tbaa !224
  %60 = load ptr, ptr @Curl_cfree, align 8, !tbaa !3
  %61 = getelementptr inbounds nuw i8, ptr %2, i64 120
  %62 = load ptr, ptr %61, align 8, !tbaa !188
  tail call void %60(ptr noundef %62) #11
  store ptr null, ptr %61, align 8, !tbaa !188
  %63 = getelementptr inbounds nuw i8, ptr %1, i64 120
  %64 = load ptr, ptr %63, align 8, !tbaa !188
  store ptr %64, ptr %61, align 8, !tbaa !188
  store ptr null, ptr %63, align 8, !tbaa !188
  %65 = load i64, ptr %20, align 8
  %66 = or i64 %65, 64
  store i64 %66, ptr %20, align 8
  tail call void @Curl_conn_free(ptr noundef %0, ptr noundef nonnull %1)
  ret void
}